; Function Attrs: mustprogress nofree norecurse nosync nounwind willreturn memory(readwrite, inaccessiblemem: none) uwtable
define internal void @_ZNK6Assimp3IFC12_GLOBAL__N_18PolyLine4EvalEd(ptr dead_on_unwind noalias writable writeonly sret(%class.aiVector3t) align 8 captures(none) initializes((0, 24)) %0, ptr noundef nonnull readonly align 8 captures(none) dereferenceable(48) %1, double noundef %2) unnamed_addr #11 align 2 {
  %4 = tail call double @llvm.floor.f64(double %2)
  %5 = fptoui double %4 to i64
  %6 = getelementptr inbounds nuw i8, ptr %1, i64 24
  %7 = getelementptr inbounds nuw i8, ptr %1, i64 32
  %8 = load ptr, ptr %7, align 8
  %9 = load ptr, ptr %6, align 8
  %10 = ptrtoint ptr %8 to i64
  %11 = ptrtoint ptr %9 to i64
  %12 = sub i64 %10, %11
  %13 = sdiv exact i64 %12, 24
  %14 = add nsw i64 %13, -1
  %15 = icmp eq i64 %14, %5
  br i1 %15, label %16, label %18

16:                                               ; preds = %3
  %17 = getelementptr inbounds i8, ptr %8, i64 -24
  tail call void @llvm.memcpy.p0.p0.i64(ptr noundef nonnull align 8 dereferenceable(24) %0, ptr noundef nonnull align 8 dereferenceable(24) %17, i64 24, i1 false)
  br label %45

18:                                               ; preds = %3
  %19 = uitofp i64 %5 to double
  %20 = fsub double %2, %19
  %21 = getelementptr %class.aiVector3t, ptr %9, i64 %5
  %22 = getelementptr i8, ptr %21, i64 24
  %23 = load double, ptr %22, align 8, !noalias !30
  %24 = fmul double %20, %23
  %25 = getelementptr i8, ptr %21, i64 32
  %26 = load double, ptr %25, align 8, !noalias !30
  %27 = fmul double %20, %26
  %28 = getelementptr i8, ptr %21, i64 40
  %29 = load double, ptr %28, align 8, !noalias !30
  %30 = fmul double %20, %29
  %31 = fsub double 1.000000e+00, %20
  %32 = load double, ptr %21, align 8, !noalias !33
  %33 = fmul double %31, %32
  %34 = getelementptr inbounds nuw i8, ptr %21, i64 8
  %35 = load double, ptr %34, align 8, !noalias !33
  %36 = fmul double %31, %35
  %37 = getelementptr inbounds nuw i8, ptr %21, i64 16
  %38 = load double, ptr %37, align 8, !noalias !33
  %39 = fmul double %31, %38
  %40 = fadd double %24, %33
  %41 = fadd double %27, %36
  %42 = fadd double %30, %39
  store double %40, ptr %0, align 8, !alias.scope !36
  %43 = getelementptr inbounds nuw i8, ptr %0, i64 8
  store double %41, ptr %43, align 8, !alias.scope !36
  %44 = getelementptr inbounds nuw i8, ptr %0, i64 16
  store double %42, ptr %44, align 8, !alias.scope !36
  br label %45

45:                                               ; preds = %18, %16
  ret void
}